target datalayout = "e-m:e-p270:32:32-p271:32:32-p272:64:64-i64:64-i128:128-f80:128-n8:16:32:64-S128"
target triple = "x86_64-pc-linux-gnu"

%struct.evkeyvalq = type { ptr, ptr }
%struct.evkeyval = type { %struct.anon.10, ptr, ptr }
%struct.anon.10 = type { ptr, ptr }

; Function Attrs: nounwind uwtable
define void @evhttp_clear_headers(ptr noundef %0) #0 {
  %2 = alloca ptr, align 8
  %3 = alloca ptr, align 8
  store ptr %0, ptr %2, align 8
  call void @llvm.lifetime.start.p0(i64 8, ptr %3) #11
  %4 = load ptr, ptr %2, align 8
  %5 = getelementptr inbounds nuw %struct.evkeyvalq, ptr %4, i32 0, i32 0
  %6 = load ptr, ptr %5, align 8
  store ptr %6, ptr %3, align 8
  br label %7

7:                                                ; preds = %53, %1
  %8 = load ptr, ptr %3, align 8
  %9 = icmp ne ptr %8, null
  br i1 %9, label %10, label %57

10:                                               ; preds = %7
  br label %11

11:                                               ; preds = %10
  %12 = load ptr, ptr %3, align 8
  %13 = getelementptr inbounds nuw %struct.evkeyval, ptr %12, i32 0, i32 0
  %14 = getelementptr inbounds nuw %struct.anon.10, ptr %13, i32 0, i32 0
  %15 = load ptr, ptr %14, align 8
  %16 = icmp ne ptr %15, null
  br i1 %16, label %17, label %28

17:                                               ; preds = %11
  %18 = load ptr, ptr %3, align 8
  %19 = getelementptr inbounds nuw %struct.evkeyval, ptr %18, i32 0, i32 0
  %20 = getelementptr inbounds nuw %struct.anon.10, ptr %19, i32 0, i32 1
  %21 = load ptr, ptr %20, align 8
  %22 = load ptr, ptr %3, align 8
  %23 = getelementptr inbounds nuw %struct.evkeyval, ptr %22, i32 0, i32 0
  %24 = getelementptr inbounds nuw %struct.anon.10, ptr %23, i32 0, i32 0
  %25 = load ptr, ptr %24, align 8
  %26 = getelementptr inbounds nuw %struct.evkeyval, ptr %25, i32 0, i32 0
  %27 = getelementptr inbounds nuw %struct.anon.10, ptr %26, i32 0, i32 1
  store ptr %21, ptr %27, align 8
  br label %35

28:                                               ; preds = %11
  %29 = load ptr, ptr %3, align 8
  %30 = getelementptr inbounds nuw %struct.evkeyval, ptr %29, i32 0, i32 0
  %31 = getelementptr inbounds nuw %struct.anon.10, ptr %30, i32 0, i32 1
  %32 = load ptr, ptr %31, align 8
  %33 = load ptr, ptr %2, align 8
  %34 = getelementptr inbounds nuw %struct.evkeyvalq, ptr %33, i32 0, i32 1
  store ptr %32, ptr %34, align 8
  br label %35

35:                                               ; preds = %28, %17
  %36 = load ptr, ptr %3, align 8
  %37 = getelementptr inbounds nuw %struct.evkeyval, ptr %36, i32 0, i32 0
  %38 = getelementptr inbounds nuw %struct.anon.10, ptr %37, i32 0, i32 0
  %39 = load ptr, ptr %38, align 8
  %40 = load ptr, ptr %3, align 8
  %41 = getelementptr inbounds nuw %struct.evkeyval, ptr %40, i32 0, i32 0
  %42 = getelementptr inbounds nuw %struct.anon.10, ptr %41, i32 0, i32 1
  %43 = load ptr, ptr %42, align 8
  store ptr %39, ptr %43, align 8
  br label %44

44:                                               ; preds = %35
  br label %45

45:                                               ; preds = %44
  %46 = load ptr, ptr %3, align 8
  %47 = getelementptr inbounds nuw %struct.evkeyval, ptr %46, i32 0, i32 1
  %48 = load ptr, ptr %47, align 8
  call void @event_mm_free_(ptr noundef %48)
  %49 = load ptr, ptr %3, align 8
  %50 = getelementptr inbounds nuw %struct.evkeyval, ptr %49, i32 0, i32 2
  %51 = load ptr, ptr %50, align 8
  call void @event_mm_free_(ptr noundef %51)
  %52 = load ptr, ptr %3, align 8
  call void @event_mm_free_(ptr noundef %52)
  br label %53

53:                                               ; preds = %45
  %54 = load ptr, ptr %2, align 8
  %55 = getelementptr inbounds nuw %struct.evkeyvalq, ptr %54, i32 0, i32 0
  %56 = load ptr, ptr %55, align 8
  store ptr %56, ptr %3, align 8
  br label %7, !llvm.loop !8

57:                                               ; preds = %7
  call void @llvm.lifetime.end.p0(i64 8, ptr %3) #11
  ret void
}