; Function Attrs: nounwind uwtable
define void @evhttp_clear_headers(ptr noundef captures(none) %0) local_unnamed_addr #0 {
  %.015 = load ptr, ptr %0, align 8
  %.not16 = icmp eq ptr %.015, null
  br i1 %.not16, label %._crit_edge, label %.lr.ph

.lr.ph:                                           ; preds = %1
  %2 = getelementptr inbounds nuw i8, ptr %0, i64 8
  br label %3

3:                                                ; preds = %.lr.ph, %10
  %.017 = phi ptr [ %.015, %.lr.ph ], [ %.0, %10 ]
  %4 = load ptr, ptr %.017, align 8
  %.not14 = icmp eq ptr %4, null
  %5 = getelementptr inbounds nuw i8, ptr %.017, i64 8
  %6 = load ptr, ptr %5, align 8
  br i1 %.not14, label %9, label %7

7:                                                ; preds = %3
  %8 = getelementptr inbounds nuw i8, ptr %4, i64 8
  store ptr %6, ptr %8, align 8
  br label %10

9:                                                ; preds = %3
  store ptr %6, ptr %2, align 8
  br label %10

10:                                               ; preds = %9, %7
  %11 = load ptr, ptr %.017, align 8
  store ptr %11, ptr %6, align 8
  %12 = getelementptr inbounds nuw i8, ptr %.017, i64 16
  %13 = load ptr, ptr %12, align 8
  tail call void @event_mm_free_(ptr noundef %13) #18
  %14 = getelementptr inbounds nuw i8, ptr %.017, i64 24
  %15 = load ptr, ptr %14, align 8
  tail call void @event_mm_free_(ptr noundef %15) #18
  tail call void @event_mm_free_(ptr noundef nonnull %.017) #18
  %.0 = load ptr, ptr %0, align 8
  %.not = icmp eq ptr %.0, null
  br i1 %.not, label %._crit_edge, label %3, !llvm.loop !8

._crit_edge:                                      ; preds = %10, %1
  ret void
}